; Function Attrs: nounwind uwtable
define internal i32 @multissl_connect_nonblocking(ptr noundef %0, ptr noundef %1, ptr noundef %2) #2 {
  %4 = load ptr, ptr @Curl_ssl, align 8
  %.not.i = icmp ne ptr %4, @Curl_ssl_multi
  %5 = load ptr, ptr @available_backends, align 16
  %.not15.i = icmp eq ptr %5, null
  %or.cond = select i1 %.not.i, i1 true, i1 %.not15.i
  br i1 %or.cond, label %multissl_setup.exit, label %6

6:                                                ; preds = %3
  %7 = tail call ptr @curl_getenv(ptr noundef nonnull @.str.14) #18
  %.not16.i = icmp eq ptr %7, null
  %8 = load ptr, ptr @available_backends, align 16
  %.not1720.i = icmp eq ptr %8, null
  %or.cond.i = select i1 %.not16.i, i1 true, i1 %.not1720.i
  br i1 %or.cond.i, label %.loopexit.i, label %.lr.ph.i

9:                                                ; preds = %.lr.ph.i
  %indvars.iv.next.i = add nuw nsw i64 %indvars.iv.i, 1
  %10 = getelementptr inbounds nuw [2 x ptr], ptr @available_backends, i64 0, i64 %indvars.iv.next.i
  %11 = load ptr, ptr %10, align 8
  %.not17.i = icmp eq ptr %11, null
  br i1 %.not17.i, label %.loopexit.loopexit.i, label %.lr.ph.i, !llvm.loop !5

.lr.ph.i:                                         ; preds = %6, %9
  %indvars.iv.i = phi i64 [ %indvars.iv.next.i, %9 ], [ 0, %6 ]
  %12 = phi ptr [ %11, %9 ], [ %8, %6 ]
  %13 = getelementptr inbounds nuw i8, ptr %12, i64 8
  %14 = load ptr, ptr %13, align 8
  %15 = tail call i32 @curl_strequal(ptr noundef nonnull %7, ptr noundef %14) #18
  %.not18.i = icmp eq i32 %15, 0
  br i1 %.not18.i, label %9, label %16

16:                                               ; preds = %.lr.ph.i
  %17 = getelementptr inbounds nuw [2 x ptr], ptr @available_backends, i64 0, i64 %indvars.iv.i
  %18 = load ptr, ptr %17, align 8
  br label %.loopexit.i

.loopexit.loopexit.i:                             ; preds = %9
  %.pre.i = load ptr, ptr @available_backends, align 16
  br label %.loopexit.i

.loopexit.i:                                      ; preds = %6, %.loopexit.loopexit.i, %16
  %.sink = phi ptr [ %18, %16 ], [ %.pre.i, %.loopexit.loopexit.i ], [ %8, %6 ]
  store ptr %.sink, ptr @Curl_ssl, align 8
  %19 = load ptr, ptr @Curl_cfree, align 8
  tail call void %19(ptr noundef %7) #18
  %20 = load ptr, ptr @Curl_ssl, align 8
  %21 = getelementptr inbounds nuw i8, ptr %20, i64 104
  %22 = load ptr, ptr %21, align 8
  %23 = tail call i32 %22(ptr noundef %0, ptr noundef %1, ptr noundef %2) #18
  br label %multissl_setup.exit

multissl_setup.exit:                              ; preds = %3, %.loopexit.i
  %.0 = phi i32 [ %23, %.loopexit.i ], [ 2, %3 ]
  ret i32 %.0
}